target datalayout = "e-m:e-p270:32:32-p271:32:32-p272:64:64-i64:64-i128:128-f80:128-n8:16:32:64-S128"
target triple = "x86_64-unknown-linux-gnu"

%"class.llvh::sys::path::const_iterator" = type <{ %"class.llvh::StringRef", %"class.llvh::StringRef", i64, i32, [4 x i8] }>
%"class.llvh::StringRef" = type { ptr, i64 }

@.str = private unnamed_addr constant [2 x i8] c":\00", align 1

; Function Attrs: mustprogress nounwind uwtable
define linkonce_odr hidden noundef ptr @_ZNK4llvh9StringRef5beginEv(ptr noundef nonnull align 8 dereferenceable(16) %this) #0 comdat align 2 {
entry:
  %this.addr = alloca ptr, align 8
  store ptr %this, ptr %this.addr, align 8
  %this1 = load ptr, ptr %this.addr, align 8
  %Data = getelementptr inbounds %"class.llvh::StringRef", ptr %this1, i32 0, i32 0
  %0 = load ptr, ptr %Data, align 8
  ret ptr %0
}

; Function Attrs: mustprogress nounwind uwtable
define hidden noundef zeroext i1 @_ZNK4llvh3sys4path14const_iteratoreqERKS2_(ptr noundef nonnull align 8 dereferenceable(44) %this, ptr noundef nonnull align 8 dereferenceable(44) %RHS) #0 align 2 {
entry:
  %this.addr = alloca ptr, align 8
  %RHS.addr = alloca ptr, align 8
  store ptr %this, ptr %this.addr, align 8
  store ptr %RHS, ptr %RHS.addr, align 8
  %this1 = load ptr, ptr %this.addr, align 8
  %Path = getelementptr inbounds %"class.llvh::sys::path::const_iterator", ptr %this1, i32 0, i32 0
  %call = call noundef ptr @_ZNK4llvh9StringRef5beginEv(ptr noundef nonnull align 8 dereferenceable(16) %Path)
  %0 = load ptr, ptr %RHS.addr, align 8
  %Path2 = getelementptr inbounds %"class.llvh::sys::path::const_iterator", ptr %0, i32 0, i32 0
  %call3 = call noundef ptr @_ZNK4llvh9StringRef5beginEv(ptr noundef nonnull align 8 dereferenceable(16) %Path2)
  %cmp = icmp eq ptr %call, %call3
  br i1 %cmp, label %land.rhs, label %land.end

land.rhs:                                         ; preds = %entry
  %Position = getelementptr inbounds %"class.llvh::sys::path::const_iterator", ptr %this1, i32 0, i32 2
  %1 = load i64, ptr %Position, align 8
  %2 = load ptr, ptr %RHS.addr, align 8
  %Position4 = getelementptr inbounds %"class.llvh::sys::path::const_iterator", ptr %2, i32 0, i32 2
  %3 = load i64, ptr %Position4, align 8
  %cmp5 = icmp eq i64 %1, %3
  br label %land.end

land.end:                                         ; preds = %land.rhs, %entry
  %4 = phi i1 [ false, %entry ], [ %cmp5, %land.rhs ]
  ret i1 %4
}

; Function Attrs: mustprogress nounwind uwtable
define linkonce_odr hidden void @_ZN4llvh3sys4path14const_iteratorC2Ev(ptr noundef nonnull align 8 dereferenceable(44) %this) unnamed_addr #0 comdat align 2 {
entry:
  %this.addr = alloca ptr, align 8
  store ptr %this, ptr %this.addr, align 8
  %this1 = load ptr, ptr %this.addr, align 8
  %Path = getelementptr inbounds %"class.llvh::sys::path::const_iterator", ptr %this1, i32 0, i32 0
  call void @_ZN4llvh9StringRefC2Ev(ptr noundef nonnull align 8 dereferenceable(16) %Path) #9
  %Component = getelementptr inbounds %"class.llvh::sys::path::const_iterator", ptr %this1, i32 0, i32 1
  call void @_ZN4llvh9StringRefC2Ev(ptr noundef nonnull align 8 dereferenceable(16) %Component) #9
  ret void
}

; Function Attrs: mustprogress nounwind uwtable
define linkonce_odr hidden void @_ZN4llvh9StringRefC2Ev(ptr noundef nonnull align 8 dereferenceable(16) %this) unnamed_addr #0 comdat align 2 {
entry:
  %this.addr = alloca ptr, align 8
  store ptr %this, ptr %this.addr, align 8
  %this1 = load ptr, ptr %this.addr, align 8
  %Data = getelementptr inbounds %"class.llvh::StringRef", ptr %this1, i32 0, i32 0
  store ptr null, ptr %Data, align 8
  %Length = getelementptr inbounds %"class.llvh::StringRef", ptr %this1, i32 0, i32 1
  store i64 0, ptr %Length, align 8
  ret void
}

; Function Attrs: mustprogress nounwind uwtable
define linkonce_odr hidden noundef ptr @_ZNK4llvh9StringRef3endEv(ptr noundef nonnull align 8 dereferenceable(16) %this) #0 comdat align 2 {
entry:
  %this.addr = alloca ptr, align 8
  store ptr %this, ptr %this.addr, align 8
  %this1 = load ptr, ptr %this.addr, align 8
  %Data = getelementptr inbounds %"class.llvh::StringRef", ptr %this1, i32 0, i32 0
  %0 = load ptr, ptr %Data, align 8
  %Length = getelementptr inbounds %"class.llvh::StringRef", ptr %this1, i32 0, i32 1
  %1 = load i64, ptr %Length, align 8
  %add.ptr = getelementptr inbounds i8, ptr %0, i64 %1
  ret ptr %add.ptr
}

; Function Attrs: mustprogress nounwind uwtable
define internal noundef i32 @_ZN12_GLOBAL__N_110real_styleEN4llvh3sys4path5StyleE(i32 noundef %style) #0 {
entry:
  %style.addr = alloca i32, align 4
  store i32 %style, ptr %style.addr, align 4
  %0 = load i32, ptr %style.addr, align 4
  %cmp = icmp eq i32 %0, 0
  %cond = select i1 %cmp, i32 0, i32 1
  ret i32 %cond
}

; Function Attrs: mustprogress nounwind uwtable
define hidden noundef zeroext i1 @_ZN4llvh3sys4path12is_separatorEcNS1_5StyleE(i8 noundef signext %value, i32 noundef %style) #0 {
entry:
  %retval = alloca i1, align 1
  %value.addr = alloca i8, align 1
  %style.addr = alloca i32, align 4
  store i8 %value, ptr %value.addr, align 1
  store i32 %style, ptr %style.addr, align 4
  %0 = load i8, ptr %value.addr, align 1
  %conv = sext i8 %0 to i32
  %cmp = icmp eq i32 %conv, 47
  br i1 %cmp, label %if.then, label %if.end

if.then:                                          ; preds = %entry
  store i1 true, ptr %retval, align 1
  br label %return

if.end:                                           ; preds = %entry
  %1 = load i32, ptr %style.addr, align 4
  %call = call noundef i32 @_ZN12_GLOBAL__N_110real_styleEN4llvh3sys4path5StyleE(i32 noundef %1)
  %cmp1 = icmp eq i32 %call, 0
  br i1 %cmp1, label %if.then2, label %if.end5

if.then2:                                         ; preds = %if.end
  %2 = load i8, ptr %value.addr, align 1
  %conv3 = sext i8 %2 to i32
  %cmp4 = icmp eq i32 %conv3, 92
  store i1 %cmp4, ptr %retval, align 1
  br label %return

if.end5:                                          ; preds = %if.end
  store i1 false, ptr %retval, align 1
  br label %return

return:                                           ; preds = %if.end5, %if.then2, %if.then
  %3 = load i1, ptr %retval, align 1
  ret i1 %3
}

; Function Attrs: mustprogress nounwind uwtable
define linkonce_odr hidden noundef signext i8 @_ZNK4llvh9StringRefixEm(ptr noundef nonnull align 8 dereferenceable(16) %this, i64 noundef %Index) #0 comdat align 2 {
entry:
  %this.addr = alloca ptr, align 8
  %Index.addr = alloca i64, align 8
  store ptr %this, ptr %this.addr, align 8
  store i64 %Index, ptr %Index.addr, align 8
  %this1 = load ptr, ptr %this.addr, align 8
  %Data = getelementptr inbounds %"class.llvh::StringRef", ptr %this1, i32 0, i32 0
  %0 = load ptr, ptr %Data, align 8
  %1 = load i64, ptr %Index.addr, align 8
  %arrayidx = getelementptr inbounds i8, ptr %0, i64 %1
  %2 = load i8, ptr %arrayidx, align 1
  ret i8 %2
}

; Function Attrs: mustprogress nounwind uwtable
define linkonce_odr hidden noundef nonnull align 8 dereferenceable(16) ptr @_ZNK4llvh3sys4path14const_iteratordeEv(ptr noundef nonnull align 8 dereferenceable(44) %this) #0 comdat align 2 {
entry:
  %this.addr = alloca ptr, align 8
  store ptr %this, ptr %this.addr, align 8
  %this1 = load ptr, ptr %this.addr, align 8
  %Component = getelementptr inbounds %"class.llvh::sys::path::const_iterator", ptr %this1, i32 0, i32 1
  ret ptr %Component
}

; Function Attrs: mustprogress nounwind uwtable
define linkonce_odr hidden noundef ptr @_ZN4llvh20iterator_facade_baseINS_3sys4path14const_iteratorESt18input_iterator_tagKNS_9StringRefElPS6_RS6_EptEv(ptr noundef nonnull align 1 dereferenceable(1) %this) #0 comdat align 2 {
entry:
  %this.addr = alloca ptr, align 8
  store ptr %this, ptr %this.addr, align 8
  %this1 = load ptr, ptr %this.addr, align 8
  %call = call noundef nonnull align 8 dereferenceable(16) ptr @_ZNK4llvh3sys4path14const_iteratordeEv(ptr noundef nonnull align 8 dereferenceable(44) %this1)
  ret ptr %call
}

; Function Attrs: mustprogress nounwind uwtable
define linkonce_odr hidden noundef zeroext i1 @_ZNK4llvh20iterator_facade_baseINS_3sys4path14const_iteratorESt18input_iterator_tagKNS_9StringRefElPS6_RS6_EneERKS3_(ptr noundef nonnull align 1 dereferenceable(1) %this, ptr noundef nonnull align 8 dereferenceable(44) %RHS) #0 comdat align 2 {
entry:
  %this.addr = alloca ptr, align 8
  %RHS.addr = alloca ptr, align 8
  store ptr %this, ptr %this.addr, align 8
  store ptr %RHS, ptr %RHS.addr, align 8
  %this1 = load ptr, ptr %this.addr, align 8
  %0 = load ptr, ptr %RHS.addr, align 8
  %call = call noundef zeroext i1 @_ZNK4llvh3sys4path14const_iteratoreqERKS2_(ptr noundef nonnull align 8 dereferenceable(44) %this1, ptr noundef nonnull align 8 dereferenceable(44) %0)
  %lnot = xor i1 %call, true
  ret i1 %lnot
}

; Function Attrs: mustprogress nounwind uwtable
define hidden void @_ZN4llvh3sys4path3endENS_9StringRefE(ptr noalias sret(%"class.llvh::sys::path::const_iterator") align 8 %agg.result, ptr %path.coerce0, i64 %path.coerce1) #0 {
entry:
  %this.addr.i = alloca ptr, align 8
  %path = alloca %"class.llvh::StringRef", align 8
  %0 = getelementptr inbounds { ptr, i64 }, ptr %path, i32 0, i32 0
  store ptr %path.coerce0, ptr %0, align 8
  %1 = getelementptr inbounds { ptr, i64 }, ptr %path, i32 0, i32 1
  store i64 %path.coerce1, ptr %1, align 8
  call void @_ZN4llvh3sys4path14const_iteratorC2Ev(ptr noundef nonnull align 8 dereferenceable(44) %agg.result) #9
  %Path = getelementptr inbounds %"class.llvh::sys::path::const_iterator", ptr %agg.result, i32 0, i32 0
  call void @llvm.memcpy.p0.p0.i64(ptr align 8 %Path, ptr align 8 %path, i64 16, i1 false)
  store ptr %path, ptr %this.addr.i, align 8
  %this1.i = load ptr, ptr %this.addr.i, align 8
  %Length.i = getelementptr inbounds %"class.llvh::StringRef", ptr %this1.i, i32 0, i32 1
  %2 = load i64, ptr %Length.i, align 8
  %Position = getelementptr inbounds %"class.llvh::sys::path::const_iterator", ptr %agg.result, i32 0, i32 2
  store i64 %2, ptr %Position, align 8
  ret void
}

; Function Attrs: mustprogress nounwind uwtable
define hidden { ptr, i64 } @_ZN4llvh3sys4path9root_nameENS_9StringRefENS1_5StyleE(ptr %path.coerce0, i64 %path.coerce1, i32 noundef %style) #0 {
entry:
  %retval.i = alloca i32, align 4
  %Lhs.addr.i = alloca ptr, align 8
  %Rhs.addr.i = alloca ptr, align 8
  %Length.addr.i = alloca i64, align 8
  %this.addr.i28 = alloca ptr, align 8
  %Str.addr.i = alloca ptr, align 8
  %Suffix.i = alloca %"class.llvh::StringRef", align 8
  %this.addr.i25 = alloca ptr, align 8
  %this.addr.i = alloca ptr, align 8
  %retval = alloca %"class.llvh::StringRef", align 8
  %path = alloca %"class.llvh::StringRef", align 8
  %style.addr = alloca i32, align 4
  %b = alloca %"class.llvh::sys::path::const_iterator", align 8
  %agg.tmp = alloca %"class.llvh::StringRef", align 8
  %e = alloca %"class.llvh::sys::path::const_iterator", align 8
  %agg.tmp1 = alloca %"class.llvh::StringRef", align 8
  %has_net = alloca i8, align 1
  %has_drive = alloca i8, align 1
  %agg.tmp17 = alloca %"class.llvh::StringRef", align 8
  %0 = getelementptr inbounds { ptr, i64 }, ptr %path, i32 0, i32 0
  store ptr %path.coerce0, ptr %0, align 8
  %1 = getelementptr inbounds { ptr, i64 }, ptr %path, i32 0, i32 1
  store i64 %path.coerce1, ptr %1, align 8
  store i32 %style, ptr %style.addr, align 4
  call void @llvm.memcpy.p0.p0.i64(ptr align 8 %agg.tmp, ptr align 8 %path, i64 16, i1 false)
  %2 = load i32, ptr %style.addr, align 4
  %3 = getelementptr inbounds { ptr, i64 }, ptr %agg.tmp, i32 0, i32 0
  %4 = load ptr, ptr %3, align 8
  %5 = getelementptr inbounds { ptr, i64 }, ptr %agg.tmp, i32 0, i32 1
  %6 = load i64, ptr %5, align 8
  call void @_ZN4llvh3sys4path5beginENS_9StringRefENS1_5StyleE(ptr sret(%"class.llvh::sys::path::const_iterator") align 8 %b, ptr %4, i64 %6, i32 noundef %2)
  call void @llvm.memcpy.p0.p0.i64(ptr align 8 %agg.tmp1, ptr align 8 %path, i64 16, i1 false)
  %7 = getelementptr inbounds { ptr, i64 }, ptr %agg.tmp1, i32 0, i32 0
  %8 = load ptr, ptr %7, align 8
  %9 = getelementptr inbounds { ptr, i64 }, ptr %agg.tmp1, i32 0, i32 1
  %10 = load i64, ptr %9, align 8
  call void @_ZN4llvh3sys4path3endENS_9StringRefE(ptr sret(%"class.llvh::sys::path::const_iterator") align 8 %e, ptr %8, i64 %10)
  %call = call noundef zeroext i1 @_ZNK4llvh20iterator_facade_baseINS_3sys4path14const_iteratorESt18input_iterator_tagKNS_9StringRefElPS6_RS6_EneERKS3_(ptr noundef nonnull align 1 dereferenceable(1) %b, ptr noundef nonnull align 8 dereferenceable(44) %e)
  br i1 %call, label %if.then, label %if.end24

if.then:                                          ; preds = %entry
  %call2 = call noundef ptr @_ZN4llvh20iterator_facade_baseINS_3sys4path14const_iteratorESt18input_iterator_tagKNS_9StringRefElPS6_RS6_EptEv(ptr noundef nonnull align 1 dereferenceable(1) %b)
  store ptr %call2, ptr %this.addr.i, align 8
  %this1.i = load ptr, ptr %this.addr.i, align 8
  %Length.i = getelementptr inbounds %"class.llvh::StringRef", ptr %this1.i, i32 0, i32 1
  %11 = load i64, ptr %Length.i, align 8
  %cmp = icmp ugt i64 %11, 2
  br i1 %cmp, label %land.lhs.true, label %land.end

land.lhs.true:                                    ; preds = %if.then
  %call4 = call noundef nonnull align 8 dereferenceable(16) ptr @_ZNK4llvh3sys4path14const_iteratordeEv(ptr noundef nonnull align 8 dereferenceable(44) %b)
  %call5 = call noundef signext i8 @_ZNK4llvh9StringRefixEm(ptr noundef nonnull align 8 dereferenceable(16) %call4, i64 noundef 0)
  %12 = load i32, ptr %style.addr, align 4
  %call6 = call noundef zeroext i1 @_ZN4llvh3sys4path12is_separatorEcNS1_5StyleE(i8 noundef signext %call5, i32 noundef %12)
  br i1 %call6, label %land.rhs, label %land.end

land.rhs:                                         ; preds = %land.lhs.true
  %call7 = call noundef nonnull align 8 dereferenceable(16) ptr @_ZNK4llvh3sys4path14const_iteratordeEv(ptr noundef nonnull align 8 dereferenceable(44) %b)
  %call8 = call noundef signext i8 @_ZNK4llvh9StringRefixEm(ptr noundef nonnull align 8 dereferenceable(16) %call7, i64 noundef 1)
  %conv = sext i8 %call8 to i32
  %call9 = call noundef nonnull align 8 dereferenceable(16) ptr @_ZNK4llvh3sys4path14const_iteratordeEv(ptr noundef nonnull align 8 dereferenceable(44) %b)
  %call10 = call noundef signext i8 @_ZNK4llvh9StringRefixEm(ptr noundef nonnull align 8 dereferenceable(16) %call9, i64 noundef 0)
  %conv11 = sext i8 %call10 to i32
  %cmp12 = icmp eq i32 %conv, %conv11
  br label %land.end

land.end:                                         ; preds = %land.rhs, %land.lhs.true, %if.then
  %13 = phi i1 [ false, %land.lhs.true ], [ false, %if.then ], [ %cmp12, %land.rhs ]
  %frombool = zext i1 %13 to i8
  store i8 %frombool, ptr %has_net, align 1
  %14 = load i32, ptr %style.addr, align 4
  %call13 = call noundef i32 @_ZN12_GLOBAL__N_110real_styleEN4llvh3sys4path5StyleE(i32 noundef %14)
  %cmp14 = icmp eq i32 %call13, 0
  br i1 %cmp14, label %land.rhs15, label %land.end19

land.rhs15:                                       ; preds = %land.end
  %call16 = call noundef ptr @_ZN4llvh20iterator_facade_baseINS_3sys4path14const_iteratorESt18input_iterator_tagKNS_9StringRefElPS6_RS6_EptEv(ptr noundef nonnull align 1 dereferenceable(1) %b)
  store ptr %agg.tmp17, ptr %this.addr.i28, align 8
  store ptr @.str, ptr %Str.addr.i, align 8
  %this1.i29 = load ptr, ptr %this.addr.i28, align 8
  %15 = load ptr, ptr %Str.addr.i, align 8
  store ptr %15, ptr %this1.i29, align 8
  %Length.i30 = getelementptr inbounds %"class.llvh::StringRef", ptr %this1.i29, i32 0, i32 1
  %16 = load ptr, ptr %Str.addr.i, align 8
  %tobool.i = icmp ne ptr %16, null
  br i1 %tobool.i, label %cond.true.i, label %cond.false.i

cond.true.i:                                      ; preds = %land.rhs15
  %17 = load ptr, ptr %Str.addr.i, align 8
  %call.i31 = call i64 @strlen(ptr noundef %17) #12
  br label %_ZN4llvh9StringRefC2EPKc.exit

cond.false.i:                                     ; preds = %land.rhs15
  br label %_ZN4llvh9StringRefC2EPKc.exit

_ZN4llvh9StringRefC2EPKc.exit:                    ; preds = %cond.false.i, %cond.true.i
  %cond.i = phi i64 [ %call.i31, %cond.true.i ], [ 0, %cond.false.i ]
  store i64 %cond.i, ptr %Length.i30, align 8
  %18 = getelementptr inbounds { ptr, i64 }, ptr %agg.tmp17, i32 0, i32 0
  %19 = load ptr, ptr %18, align 8
  %20 = getelementptr inbounds { ptr, i64 }, ptr %agg.tmp17, i32 0, i32 1
  %21 = load i64, ptr %20, align 8
  store ptr %19, ptr %Suffix.i, align 8
  %22 = getelementptr inbounds { ptr, i64 }, ptr %Suffix.i, i32 0, i32 1
  store i64 %21, ptr %22, align 8
  store ptr %call16, ptr %this.addr.i25, align 8
  %this1.i26 = load ptr, ptr %this.addr.i25, align 8
  %Length.i27 = getelementptr inbounds %"class.llvh::StringRef", ptr %this1.i26, i32 0, i32 1
  %23 = load i64, ptr %Length.i27, align 8
  %Length2.i = getelementptr inbounds %"class.llvh::StringRef", ptr %Suffix.i, i32 0, i32 1
  %24 = load i64, ptr %Length2.i, align 8
  %cmp.i = icmp uge i64 %23, %24
  br i1 %cmp.i, label %land.rhs.i, label %_ZNK4llvh9StringRef8endswithES0_.exit

land.rhs.i:                                       ; preds = %_ZN4llvh9StringRefC2EPKc.exit
  %call.i = call noundef ptr @_ZNK4llvh9StringRef3endEv(ptr noundef nonnull align 8 dereferenceable(16) %this1.i26)
  %Length3.i = getelementptr inbounds %"class.llvh::StringRef", ptr %Suffix.i, i32 0, i32 1
  %25 = load i64, ptr %Length3.i, align 8
  %idx.neg.i = sub i64 0, %25
  %add.ptr.i = getelementptr inbounds i8, ptr %call.i, i64 %idx.neg.i
  %26 = load ptr, ptr %Suffix.i, align 8
  %Length4.i = getelementptr inbounds %"class.llvh::StringRef", ptr %Suffix.i, i32 0, i32 1
  %27 = load i64, ptr %Length4.i, align 8
  store ptr %add.ptr.i, ptr %Lhs.addr.i, align 8
  store ptr %26, ptr %Rhs.addr.i, align 8
  store i64 %27, ptr %Length.addr.i, align 8
  %28 = load i64, ptr %Length.addr.i, align 8
  %cmp.i32 = icmp eq i64 %28, 0
  br i1 %cmp.i32, label %if.then.i, label %if.end.i

if.then.i:                                        ; preds = %land.rhs.i
  store i32 0, ptr %retval.i, align 4
  br label %_ZN4llvh9StringRef13compareMemoryEPKcS2_m.exit

if.end.i:                                         ; preds = %land.rhs.i
  %29 = load ptr, ptr %Lhs.addr.i, align 8
  %30 = load ptr, ptr %Rhs.addr.i, align 8
  %31 = load i64, ptr %Length.addr.i, align 8
  %call.i33 = call i32 @memcmp(ptr noundef %29, ptr noundef %30, i64 noundef %31) #12
  store i32 %call.i33, ptr %retval.i, align 4
  br label %_ZN4llvh9StringRef13compareMemoryEPKcS2_m.exit

_ZN4llvh9StringRef13compareMemoryEPKcS2_m.exit:   ; preds = %if.end.i, %if.then.i
  %32 = load i32, ptr %retval.i, align 4
  %cmp6.i = icmp eq i32 %32, 0
  br label %_ZNK4llvh9StringRef8endswithES0_.exit

_ZNK4llvh9StringRef8endswithES0_.exit:            ; preds = %_ZN4llvh9StringRef13compareMemoryEPKcS2_m.exit, %_ZN4llvh9StringRefC2EPKc.exit
  %33 = phi i1 [ false, %_ZN4llvh9StringRefC2EPKc.exit ], [ %cmp6.i, %_ZN4llvh9StringRef13compareMemoryEPKcS2_m.exit ]
  br label %land.end19

land.end19:                                       ; preds = %_ZNK4llvh9StringRef8endswithES0_.exit, %land.end
  %34 = phi i1 [ false, %land.end ], [ %33, %_ZNK4llvh9StringRef8endswithES0_.exit ]
  %frombool20 = zext i1 %34 to i8
  store i8 %frombool20, ptr %has_drive, align 1
  %35 = load i8, ptr %has_net, align 1
  %tobool = trunc i8 %35 to i1
  br i1 %tobool, label %if.then22, label %lor.lhs.false

lor.lhs.false:                                    ; preds = %land.end19
  %36 = load i8, ptr %has_drive, align 1
  %tobool21 = trunc i8 %36 to i1
  br i1 %tobool21, label %if.then22, label %if.end

if.then22:                                        ; preds = %lor.lhs.false, %land.end19
  %call23 = call noundef nonnull align 8 dereferenceable(16) ptr @_ZNK4llvh3sys4path14const_iteratordeEv(ptr noundef nonnull align 8 dereferenceable(44) %b)
  call void @llvm.memcpy.p0.p0.i64(ptr align 8 %retval, ptr align 8 %call23, i64 16, i1 false)
  br label %return

if.end:                                           ; preds = %lor.lhs.false
  br label %if.end24

if.end24:                                         ; preds = %if.end, %entry
  call void @llvm.memset.p0.i64(ptr align 8 %retval, i8 0, i64 16, i1 false)
  call void @_ZN4llvh9StringRefC2Ev(ptr noundef nonnull align 8 dereferenceable(16) %retval) #9
  br label %return

return:                                           ; preds = %if.end24, %if.then22
  %37 = load { ptr, i64 }, ptr %retval, align 8
  ret { ptr, i64 } %37
}