; Function Attrs: mustprogress nounwind uwtable
define hidden { ptr, i64 } @_ZN4llvh3sys4path9root_nameENS_9StringRefENS1_5StyleE(ptr %path.coerce0, i64 %path.coerce1, i32 noundef %style) local_unnamed_addr #0 {
entry:
  %b = alloca %"class.llvh::sys::path::const_iterator", align 8
  call void @_ZN4llvh3sys4path5beginENS_9StringRefENS1_5StyleE(ptr nonnull sret(%"class.llvh::sys::path::const_iterator") align 8 %b, ptr %path.coerce0, i64 %path.coerce1, i32 noundef %style)
  %0 = load ptr, ptr %b, align 8
  %cmp.i.i = icmp ne ptr %0, %path.coerce0
  %Position.i.i = getelementptr inbounds i8, ptr %b, i64 32
  %1 = load i64, ptr %Position.i.i, align 8
  %cmp5.i.i = icmp ne i64 %1, %path.coerce1
  %.not.i = select i1 %cmp.i.i, i1 true, i1 %cmp5.i.i
  br i1 %.not.i, label %if.then, label %return

if.then:                                          ; preds = %entry
  %Component.i.i = getelementptr inbounds i8, ptr %b, i64 16
  %Length.i = getelementptr inbounds i8, ptr %b, i64 24
  %2 = load i64, ptr %Length.i, align 8
  %cmp = icmp ugt i64 %2, 2
  %retval.sroa.0.0.copyload.pre.pre = load ptr, ptr %Component.i.i, align 8
  br i1 %cmp, label %land.lhs.true, label %land.end

land.lhs.true:                                    ; preds = %if.then
  %3 = load i8, ptr %retval.sroa.0.0.copyload.pre.pre, align 1
  %cmp.i = icmp eq i8 %3, 47
  br i1 %cmp.i, label %land.rhs, label %_ZN4llvh3sys4path12is_separatorEcNS1_5StyleE.exit

_ZN4llvh3sys4path12is_separatorEcNS1_5StyleE.exit: ; preds = %land.lhs.true
  %cmp.i.not.i = icmp eq i32 %style, 0
  %cmp4.i = icmp eq i8 %3, 92
  %spec.select.i = and i1 %cmp.i.not.i, %cmp4.i
  br i1 %spec.select.i, label %land.rhs, label %land.end

land.rhs:                                         ; preds = %land.lhs.true, %_ZN4llvh3sys4path12is_separatorEcNS1_5StyleE.exit
  %arrayidx.i = getelementptr inbounds i8, ptr %retval.sroa.0.0.copyload.pre.pre, i64 1
  %4 = load i8, ptr %arrayidx.i, align 1
  %cmp12 = icmp eq i8 %4, %3
  br label %land.end

land.end:                                         ; preds = %land.rhs, %_ZN4llvh3sys4path12is_separatorEcNS1_5StyleE.exit, %if.then
  %5 = phi i1 [ false, %_ZN4llvh3sys4path12is_separatorEcNS1_5StyleE.exit ], [ false, %if.then ], [ %cmp12, %land.rhs ]
  %cmp.i11 = icmp ne i32 %style, 0
  %cmp.i.not = icmp eq i64 %2, 0
  %or.cond = or i1 %cmp.i11, %cmp.i.not
  br i1 %or.cond, label %land.end19, label %land.rhs.i

land.rhs.i:                                       ; preds = %land.end
  %add.ptr.i14 = getelementptr inbounds i8, ptr %retval.sroa.0.0.copyload.pre.pre, i64 %2
  %add.ptr.i = getelementptr inbounds i8, ptr %add.ptr.i14, i64 -1
  %lhsc = load i8, ptr %add.ptr.i, align 1
  %6 = icmp eq i8 %lhsc, 58
  br label %land.end19

land.end19:                                       ; preds = %land.rhs.i, %land.end
  %7 = phi i1 [ false, %land.end ], [ %6, %land.rhs.i ]
  %brmerge = select i1 %5, i1 true, i1 %7
  %spec.select = select i1 %brmerge, i64 %2, i64 0
  %spec.select19 = select i1 %brmerge, ptr %retval.sroa.0.0.copyload.pre.pre, ptr null
  br label %return

return:                                           ; preds = %land.end19, %entry
  %retval.sroa.4.0 = phi i64 [ 0, %entry ], [ %spec.select, %land.end19 ]
  %retval.sroa.0.0 = phi ptr [ null, %entry ], [ %spec.select19, %land.end19 ]
  %.fca.0.insert = insertvalue { ptr, i64 } poison, ptr %retval.sroa.0.0, 0
  %.fca.1.insert = insertvalue { ptr, i64 } %.fca.0.insert, i64 %retval.sroa.4.0, 1
  ret { ptr, i64 } %.fca.1.insert
}